; ModuleID = '9/76.c'
source_filename = "9/76.c"
target datalayout = "e-m:e-p270:32:32-p271:32:32-p272:64:64-i64:64-f80:128-n8:16:32:64-S128"
target triple = "x86_64-pc-linux-gnu"

%struct.people = type { [10 x i8], i32 }

@.str = private unnamed_addr constant [3 x i8] c"%d\00", align 1
@.str.1 = private unnamed_addr constant [3 x i8] c"%s\00", align 1
@.str.2 = private unnamed_addr constant [4 x i8] c"%s\0A\00", align 1

; Function Attrs: noinline nounwind uwtable
define dso_local void @main() #0 {
  %1 = alloca i32, align 4
  %2 = alloca i32, align 4
  %3 = alloca i32, align 4
  %4 = alloca [100 x %struct.people], align 16
  %5 = alloca [100 x %struct.people], align 16
  %6 = call i32 (i8*, ...) @__isoc99_scanf(i8* getelementptr inbounds ([3 x i8], [3 x i8]* @.str, i64 0, i64 0), i32* %1)
  store i32 0, i32* %2, align 4
  br label %7

7:                                                ; preds = %23, %0
  %8 = load i32, i32* %2, align 4
  %9 = load i32, i32* %1, align 4
  %10 = icmp slt i32 %8, %9
  br i1 %10, label %11, label %26

11:                                               ; preds = %7
  %12 = load i32, i32* %2, align 4
  %13 = sext i32 %12 to i64
  %14 = getelementptr inbounds [100 x %struct.people], [100 x %struct.people]* %4, i64 0, i64 %13
  %15 = getelementptr inbounds %struct.people, %struct.people* %14, i32 0, i32 0
  %16 = getelementptr inbounds [10 x i8], [10 x i8]* %15, i64 0, i64 0
  %17 = call i32 (i8*, ...) @__isoc99_scanf(i8* getelementptr inbounds ([3 x i8], [3 x i8]* @.str.1, i64 0, i64 0), i8* %16)
  %18 = load i32, i32* %2, align 4
  %19 = sext i32 %18 to i64
  %20 = getelementptr inbounds [100 x %struct.people], [100 x %struct.people]* %4, i64 0, i64 %19
  %21 = getelementptr inbounds %struct.people, %struct.people* %20, i32 0, i32 1
  %22 = call i32 (i8*, ...) @__isoc99_scanf(i8* getelementptr inbounds ([3 x i8], [3 x i8]* @.str, i64 0, i64 0), i32* %21)
  br label %23

23:                                               ; preds = %11
  %24 = load i32, i32* %2, align 4
  %25 = add nsw i32 %24, 1
  store i32 %25, i32* %2, align 4
  br label %7

26:                                               ; preds = %7
  store i32 0, i32* %3, align 4
  store i32 0, i32* %2, align 4
  br label %27

27:                                               ; preds = %63, %26
  %28 = load i32, i32* %2, align 4
  %29 = load i32, i32* %1, align 4
  %30 = icmp slt i32 %28, %29
  br i1 %30, label %31, label %66

31:                                               ; preds = %27
  %32 = load i32, i32* %2, align 4
  %33 = sext i32 %32 to i64
  %34 = getelementptr inbounds [100 x %struct.people], [100 x %struct.people]* %4, i64 0, i64 %33
  %35 = getelementptr inbounds %struct.people, %struct.people* %34, i32 0, i32 1
  %36 = load i32, i32* %35, align 4
  %37 = icmp sge i32 %36, 60
  br i1 %37, label %38, label %61

38:                                               ; preds = %31
  %39 = load i32, i32* %3, align 4
  %40 = sext i32 %39 to i64
  %41 = getelementptr inbounds [100 x %struct.people], [100 x %struct.people]* %5, i64 0, i64 %40
  %42 = getelementptr inbounds %struct.people, %struct.people* %41, i32 0, i32 0
  %43 = getelementptr inbounds [10 x i8], [10 x i8]* %42, i64 0, i64 0
  %44 = load i32, i32* %2, align 4
  %45 = sext i32 %44 to i64
  %46 = getelementptr inbounds [100 x %struct.people], [100 x %struct.people]* %4, i64 0, i64 %45
  %47 = getelementptr inbounds %struct.people, %struct.people* %46, i32 0, i32 0
  %48 = getelementptr inbounds [10 x i8], [10 x i8]* %47, i64 0, i64 0
  %49 = call i8* @strcpy(i8* %43, i8* %48) #4
  %50 = load i32, i32* %2, align 4
  %51 = sext i32 %50 to i64
  %52 = getelementptr inbounds [100 x %struct.people], [100 x %struct.people]* %4, i64 0, i64 %51
  %53 = getelementptr inbounds %struct.people, %struct.people* %52, i32 0, i32 1
  %54 = load i32, i32* %53, align 4
  %55 = load i32, i32* %3, align 4
  %56 = sext i32 %55 to i64
  %57 = getelementptr inbounds [100 x %struct.people], [100 x %struct.people]* %5, i64 0, i64 %56
  %58 = getelementptr inbounds %struct.people, %struct.people* %57, i32 0, i32 1
  store i32 %54, i32* %58, align 4
  %59 = load i32, i32* %3, align 4
  %60 = add nsw i32 %59, 1
  store i32 %60, i32* %3, align 4
  br label %62

61:                                               ; preds = %31
  br label %63

62:                                               ; preds = %38
  br label %63

63:                                               ; preds = %62, %61
  %64 = load i32, i32* %2, align 4
  %65 = add nsw i32 %64, 1
  store i32 %65, i32* %2, align 4
  br label %27

66:                                               ; preds = %27
  %67 = getelementptr inbounds [100 x %struct.people], [100 x %struct.people]* %5, i64 0, i64 0
  %68 = load i32, i32* %3, align 4
  call void @bubble(%struct.people* %67, i32 %68)
  store i32 0, i32* %2, align 4
  br label %69

69:                                               ; preds = %80, %66
  %70 = load i32, i32* %2, align 4
  %71 = load i32, i32* %3, align 4
  %72 = icmp slt i32 %70, %71
  br i1 %72, label %73, label %83

73:                                               ; preds = %69
  %74 = load i32, i32* %2, align 4
  %75 = sext i32 %74 to i64
  %76 = getelementptr inbounds [100 x %struct.people], [100 x %struct.people]* %5, i64 0, i64 %75
  %77 = getelementptr inbounds %struct.people, %struct.people* %76, i32 0, i32 0
  %78 = getelementptr inbounds [10 x i8], [10 x i8]* %77, i64 0, i64 0
  %79 = call i32 (i8*, ...) @printf(i8* getelementptr inbounds ([4 x i8], [4 x i8]* @.str.2, i64 0, i64 0), i8* %78)
  br label %80

80:                                               ; preds = %73
  %81 = load i32, i32* %2, align 4
  %82 = add nsw i32 %81, 1
  store i32 %82, i32* %2, align 4
  br label %69

83:                                               ; preds = %69
  store i32 0, i32* %2, align 4
  br label %84

84:                                               ; preds = %103, %83
  %85 = load i32, i32* %2, align 4
  %86 = load i32, i32* %1, align 4
  %87 = icmp slt i32 %85, %86
  br i1 %87, label %88, label %106

88:                                               ; preds = %84
  %89 = load i32, i32* %2, align 4
  %90 = sext i32 %89 to i64
  %91 = getelementptr inbounds [100 x %struct.people], [100 x %struct.people]* %4, i64 0, i64 %90
  %92 = getelementptr inbounds %struct.people, %struct.people* %91, i32 0, i32 1
  %93 = load i32, i32* %92, align 4
  %94 = icmp slt i32 %93, 60
  br i1 %94, label %95, label %102

95:                                               ; preds = %88
  %96 = load i32, i32* %2, align 4
  %97 = sext i32 %96 to i64
  %98 = getelementptr inbounds [100 x %struct.people], [100 x %struct.people]* %4, i64 0, i64 %97
  %99 = getelementptr inbounds %struct.people, %struct.people* %98, i32 0, i32 0
  %100 = getelementptr inbounds [10 x i8], [10 x i8]* %99, i64 0, i64 0
  %101 = call i32 (i8*, ...) @printf(i8* getelementptr inbounds ([4 x i8], [4 x i8]* @.str.2, i64 0, i64 0), i8* %100)
  br label %102

102:                                              ; preds = %95, %88
  br label %103

103:                                              ; preds = %102
  %104 = load i32, i32* %2, align 4
  %105 = add nsw i32 %104, 1
  store i32 %105, i32* %2, align 4
  br label %84

106:                                              ; preds = %84
  ret void
}

declare dso_local i32 @__isoc99_scanf(i8*, ...) #1

; Function Attrs: nounwind
declare dso_local i8* @strcpy(i8*, i8*) #2

; Function Attrs: noinline nounwind uwtable
define dso_local void @bubble(%struct.people* %0, i32 %1) #0 {
  %3 = alloca %struct.people*, align 8
  %4 = alloca i32, align 4
  %5 = alloca i32, align 4
  %6 = alloca i32, align 4
  %7 = alloca %struct.people, align 4
  store %struct.people* %0, %struct.people** %3, align 8
  store i32 %1, i32* %4, align 4
  store i32 1, i32* %5, align 4
  br label %8

8:                                                ; preds = %64, %2
  %9 = load i32, i32* %5, align 4
  %10 = load i32, i32* %4, align 4
  %11 = icmp slt i32 %9, %10
  br i1 %11, label %12, label %67

12:                                               ; preds = %8
  store i32 0, i32* %6, align 4
  br label %13

13:                                               ; preds = %60, %12
  %14 = load i32, i32* %6, align 4
  %15 = load i32, i32* %4, align 4
  %16 = load i32, i32* %5, align 4
  %17 = sub nsw i32 %15, %16
  %18 = icmp slt i32 %14, %17
  br i1 %18, label %19, label %63

19:                                               ; preds = %13
  %20 = load %struct.people*, %struct.people** %3, align 8
  %21 = load i32, i32* %6, align 4
  %22 = sext i32 %21 to i64
  %23 = getelementptr inbounds %struct.people, %struct.people* %20, i64 %22
  %24 = getelementptr inbounds %struct.people, %struct.people* %23, i32 0, i32 1
  %25 = load i32, i32* %24, align 4
  %26 = load %struct.people*, %struct.people** %3, align 8
  %27 = load i32, i32* %6, align 4
  %28 = add nsw i32 %27, 1
  %29 = sext i32 %28 to i64
  %30 = getelementptr inbounds %struct.people, %struct.people* %26, i64 %29
  %31 = getelementptr inbounds %struct.people, %struct.people* %30, i32 0, i32 1
  %32 = load i32, i32* %31, align 4
  %33 = icmp slt i32 %25, %32
  br i1 %33, label %34, label %59

34:                                               ; preds = %19
  %35 = load %struct.people*, %struct.people** %3, align 8
  %36 = load i32, i32* %6, align 4
  %37 = sext i32 %36 to i64
  %38 = getelementptr inbounds %struct.people, %struct.people* %35, i64 %37
  %39 = bitcast %struct.people* %7 to i8*
  %40 = bitcast %struct.people* %38 to i8*
  call void @llvm.memcpy.p0i8.p0i8.i64(i8* align 4 %39, i8* align 4 %40, i64 16, i1 false)
  %41 = load %struct.people*, %struct.people** %3, align 8
  %42 = load i32, i32* %6, align 4
  %43 = sext i32 %42 to i64
  %44 = getelementptr inbounds %struct.people, %struct.people* %41, i64 %43
  %45 = load %struct.people*, %struct.people** %3, align 8
  %46 = load i32, i32* %6, align 4
  %47 = add nsw i32 %46, 1
  %48 = sext i32 %47 to i64
  %49 = getelementptr inbounds %struct.people, %struct.people* %45, i64 %48
  %50 = bitcast %struct.people* %44 to i8*
  %51 = bitcast %struct.people* %49 to i8*
  call void @llvm.memcpy.p0i8.p0i8.i64(i8* align 4 %50, i8* align 4 %51, i64 16, i1 false)
  %52 = load %struct.people*, %struct.people** %3, align 8
  %53 = load i32, i32* %6, align 4
  %54 = add nsw i32 %53, 1
  %55 = sext i32 %54 to i64
  %56 = getelementptr inbounds %struct.people, %struct.people* %52, i64 %55
  %57 = bitcast %struct.people* %56 to i8*
  %58 = bitcast %struct.people* %7 to i8*
  call void @llvm.memcpy.p0i8.p0i8.i64(i8* align 4 %57, i8* align 4 %58, i64 16, i1 false)
  br label %59

59:                                               ; preds = %34, %19
  br label %60

60:                                               ; preds = %59
  %61 = load i32, i32* %6, align 4
  %62 = add nsw i32 %61, 1
  store i32 %62, i32* %6, align 4
  br label %13

63:                                               ; preds = %13
  br label %64

64:                                               ; preds = %63
  %65 = load i32, i32* %5, align 4
  %66 = add nsw i32 %65, 1
  store i32 %66, i32* %5, align 4
  br label %8

67:                                               ; preds = %8
  ret void
}

declare dso_local i32 @printf(i8*, ...) #1

; Function Attrs: argmemonly nounwind willreturn
declare void @llvm.memcpy.p0i8.p0i8.i64(i8* noalias nocapture writeonly, i8* noalias nocapture readonly, i64, i1 immarg) #3


!llvm.module.flags = !{!0}
!llvm.ident = !{!1}

!0 = !{i32 1, !"wchar_size", i32 4}
!1 = !{!"clang version 10.0.0-4ubuntu1 "}
